; Function Attrs: mustprogress nofree norecurse nosync nounwind willreturn memory(read, inaccessiblemem: none) uwtable
define noundef ptr @_ZN9grpc_core23MessageSizeParsedConfig18GetFromCallContextEPK25grpc_call_context_elementm(ptr noundef readonly %context, i64 noundef %service_config_parser_index) local_unnamed_addr #3 align 2 {
entry:
  %cmp = icmp eq ptr %context, null
  br i1 %cmp, label %return, label %if.end

if.end:                                           ; preds = %entry
  %arrayidx = getelementptr inbounds i8, ptr %context, i64 80
  %0 = load ptr, ptr %arrayidx, align 8
  %cmp1 = icmp eq ptr %0, null
  br i1 %cmp1, label %return, label %if.end3

if.end3:                                          ; preds = %if.end
  %method_configs_.i = getelementptr inbounds i8, ptr %0, i64 16
  %1 = load ptr, ptr %method_configs_.i, align 8
  %cmp.i = icmp eq ptr %1, null
  br i1 %cmp.i, label %return, label %if.end.i

if.end.i:                                         ; preds = %if.end3
  %2 = load ptr, ptr %1, align 8
  %add.ptr.i.i = getelementptr inbounds %"class.std::unique_ptr", ptr %2, i64 %service_config_parser_index
  %3 = load ptr, ptr %add.ptr.i.i, align 8
  br label %return

return:                                           ; preds = %if.end.i, %if.end3, %if.end, %entry
  %retval.0 = phi ptr [ null, %entry ], [ null, %if.end ], [ %3, %if.end.i ], [ null, %if.end3 ]
  ret ptr %retval.0
}